; ModuleID = '24/949.c'
source_filename = "24/949.c"
target datalayout = "e-m:e-p270:32:32-p271:32:32-p272:64:64-i64:64-f80:128-n8:16:32:64-S128"
target triple = "x86_64-pc-linux-gnu"

@.str = private unnamed_addr constant [3 x i8] c"%c\00", align 1
@.str.1 = private unnamed_addr constant [2 x i8] c"\0A\00", align 1

; Function Attrs: noinline nounwind uwtable
define dso_local void @main() #0 {
  %1 = alloca i32, align 4
  %2 = alloca i32, align 4
  %3 = alloca i32, align 4
  %4 = alloca [500 x i8], align 16
  %5 = alloca i8*, align 8
  %6 = alloca i8*, align 8
  %7 = alloca i8*, align 8
  %8 = alloca i8*, align 8
  %9 = alloca i8*, align 8
  store i32 -1, i32* %1, align 4
  store i32 100, i32* %2, align 4
  store i32 0, i32* %3, align 4
  %10 = getelementptr inbounds [500 x i8], [500 x i8]* %4, i64 0, i64 0
  store i8* %10, i8** %7, align 8
  store i8* %10, i8** %6, align 8
  store i8* %10, i8** %5, align 8
  %11 = load i8*, i8** %5, align 8
  %12 = call i32 (i8*, ...) bitcast (i32 (...)* @gets to i32 (i8*, ...)*)(i8* %11)
  br label %13

13:                                               ; preds = %67, %0
  %14 = load i8*, i8** %5, align 8
  store i8* %14, i8** %9, align 8
  store i8* %14, i8** %8, align 8
  br label %15

15:                                               ; preds = %27, %13
  %16 = load i8*, i8** %5, align 8
  %17 = load i8, i8* %16, align 1
  %18 = sext i8 %17 to i32
  %19 = icmp ne i32 %18, 32
  br i1 %19, label %20, label %25

20:                                               ; preds = %15
  %21 = load i8*, i8** %5, align 8
  %22 = load i8, i8* %21, align 1
  %23 = sext i8 %22 to i32
  %24 = icmp ne i32 %23, 0
  br label %25

25:                                               ; preds = %20, %15
  %26 = phi i1 [ false, %15 ], [ %24, %20 ]
  br i1 %26, label %27, label %30

27:                                               ; preds = %25
  %28 = load i8*, i8** %5, align 8
  %29 = getelementptr inbounds i8, i8* %28, i32 1
  store i8* %29, i8** %5, align 8
  br label %15

30:                                               ; preds = %25
  %31 = load i32, i32* %3, align 4
  %32 = sext i32 %31 to i64
  %33 = load i8*, i8** %5, align 8
  %34 = load i8*, i8** %8, align 8
  %35 = ptrtoint i8* %33 to i64
  %36 = ptrtoint i8* %34 to i64
  %37 = sub i64 %35, %36
  %38 = icmp slt i64 %32, %37
  br i1 %38, label %39, label %47

39:                                               ; preds = %30
  %40 = load i8*, i8** %5, align 8
  %41 = load i8*, i8** %8, align 8
  %42 = ptrtoint i8* %40 to i64
  %43 = ptrtoint i8* %41 to i64
  %44 = sub i64 %42, %43
  %45 = trunc i64 %44 to i32
  store i32 %45, i32* %3, align 4
  %46 = load i8*, i8** %8, align 8
  store i8* %46, i8** %6, align 8
  br label %47

47:                                               ; preds = %39, %30
  %48 = load i32, i32* %2, align 4
  %49 = sext i32 %48 to i64
  %50 = load i8*, i8** %5, align 8
  %51 = load i8*, i8** %9, align 8
  %52 = ptrtoint i8* %50 to i64
  %53 = ptrtoint i8* %51 to i64
  %54 = sub i64 %52, %53
  %55 = icmp sgt i64 %49, %54
  br i1 %55, label %56, label %64

56:                                               ; preds = %47
  %57 = load i8*, i8** %5, align 8
  %58 = load i8*, i8** %9, align 8
  %59 = ptrtoint i8* %57 to i64
  %60 = ptrtoint i8* %58 to i64
  %61 = sub i64 %59, %60
  %62 = trunc i64 %61 to i32
  store i32 %62, i32* %2, align 4
  %63 = load i8*, i8** %9, align 8
  store i8* %63, i8** %7, align 8
  br label %64

64:                                               ; preds = %56, %47
  %65 = load i8*, i8** %5, align 8
  %66 = getelementptr inbounds i8, i8* %65, i32 1
  store i8* %66, i8** %5, align 8
  br label %67

67:                                               ; preds = %64
  %68 = load i8*, i8** %5, align 8
  %69 = getelementptr inbounds i8, i8* %68, i64 -1
  %70 = load i8, i8* %69, align 1
  %71 = sext i8 %70 to i32
  %72 = icmp ne i32 %71, 0
  br i1 %72, label %13, label %73

73:                                               ; preds = %67
  store i32 1, i32* %1, align 4
  br label %74

74:                                               ; preds = %84, %73
  %75 = load i32, i32* %1, align 4
  %76 = load i32, i32* %3, align 4
  %77 = icmp sle i32 %75, %76
  br i1 %77, label %78, label %87

78:                                               ; preds = %74
  %79 = load i8*, i8** %6, align 8
  %80 = getelementptr inbounds i8, i8* %79, i32 1
  store i8* %80, i8** %6, align 8
  %81 = load i8, i8* %79, align 1
  %82 = sext i8 %81 to i32
  %83 = call i32 (i8*, ...) @printf(i8* getelementptr inbounds ([3 x i8], [3 x i8]* @.str, i64 0, i64 0), i32 %82)
  br label %84

84:                                               ; preds = %78
  %85 = load i32, i32* %1, align 4
  %86 = add nsw i32 %85, 1
  store i32 %86, i32* %1, align 4
  br label %74

87:                                               ; preds = %74
  %88 = call i32 (i8*, ...) @printf(i8* getelementptr inbounds ([2 x i8], [2 x i8]* @.str.1, i64 0, i64 0))
  store i32 1, i32* %1, align 4
  br label %89

89:                                               ; preds = %99, %87
  %90 = load i32, i32* %1, align 4
  %91 = load i32, i32* %2, align 4
  %92 = icmp sle i32 %90, %91
  br i1 %92, label %93, label %102

93:                                               ; preds = %89
  %94 = load i8*, i8** %7, align 8
  %95 = getelementptr inbounds i8, i8* %94, i32 1
  store i8* %95, i8** %7, align 8
  %96 = load i8, i8* %94, align 1
  %97 = sext i8 %96 to i32
  %98 = call i32 (i8*, ...) @printf(i8* getelementptr inbounds ([3 x i8], [3 x i8]* @.str, i64 0, i64 0), i32 %97)
  br label %99

99:                                               ; preds = %93
  %100 = load i32, i32* %1, align 4
  %101 = add nsw i32 %100, 1
  store i32 %101, i32* %1, align 4
  br label %89

102:                                              ; preds = %89
  ret void
}

declare dso_local i32 @gets(...) #1

declare dso_local i32 @printf(i8*, ...) #1


!llvm.module.flags = !{!0}
!llvm.ident = !{!1}

!0 = !{i32 1, !"wchar_size", i32 4}
!1 = !{!"clang version 10.0.0-4ubuntu1 "}
